target datalayout = "e-m:e-p270:32:32-p271:32:32-p272:64:64-i64:64-i128:128-f80:128-n8:16:32:64-S128"
target triple = "x86_64-pc-linux-gnu"

%struct._zend_phar_globals = type { %struct._zend_array, %struct._zend_array, ptr, %struct._zend_array, i32, ptr, i8, i8, i8, i8, i8, i8, i8, i8, i8, i8, i8, i8, ptr, ptr, ptr, ptr, ptr, ptr, ptr, ptr, ptr, ptr, ptr, ptr, ptr, ptr, ptr, ptr, ptr, ptr, ptr, ptr, ptr, ptr, ptr, i32, i8, ptr, i32, ptr, i32, ptr, i32, ptr, %struct._zend_array }
%struct._zend_array = type { %struct._zend_refcounted_h, %union.anon.0, i32, %union.anon.1, i32, i32, i32, i32, i64, ptr }
%struct._zend_refcounted_h = type { i32, %union.anon }
%union.anon = type { i32 }
%union.anon.0 = type { i32 }
%union.anon.1 = type { ptr }
%struct.php_url = type { ptr, ptr, ptr, ptr, i16, ptr, ptr, ptr }
%struct._phar_archive_data = type { ptr, i32, ptr, i32, ptr, i32, [12 x i8], i64, %struct._zend_array, %struct._zend_array, %struct._zend_array, i32, i32, i32, ptr, ptr, i32, i32, i32, ptr, %struct._phar_metadata_tracker, i32, i16 }
%struct._phar_metadata_tracker = type { %struct._zval_struct, ptr }
%struct._zval_struct = type { %union._zend_value, %union.anon.3, %union.anon.6 }
%union._zend_value = type { i64 }
%union.anon.3 = type { i32 }
%union.anon.6 = type { i32 }
%struct._zend_string = type { %struct._zend_refcounted_h, i64, i64, [1 x i8] }
%struct._phar_entry_info = type { i32, i32, i32, i32, i32, i32, %struct._phar_metadata_tracker, ptr, i32, i64, i64, i64, ptr, ptr, i32, ptr, ptr, ptr, i8, i32, i16, i16 }
%struct._phar_entry_data = type { ptr, ptr, i64, i64, ptr }

@.str.4 = private unnamed_addr constant [5 x i8] c"phar\00", align 1
@phar_globals = external global %struct._zend_phar_globals, align 8
@.str.5 = private unnamed_addr constant [75 x i8] c"phar error: write operations disabled by the php.ini setting phar.readonly\00", align 1
@.str.6 = private unnamed_addr constant [3 x i8] c"%s\00", align 1
@.str.8 = private unnamed_addr constant [29 x i8] c"phar error: invalid url \22%s\22\00", align 1
@.str.9 = private unnamed_addr constant [39 x i8] c"phar error: not a phar stream url \22%s\22\00", align 1
@.str.16 = private unnamed_addr constant [2 x i8] c"r\00", align 1
@.str.22 = private unnamed_addr constant [3 x i8] c"rb\00", align 1
@.str.23 = private unnamed_addr constant [26 x i8] c"phar error: unlink failed\00", align 1
@.str.24 = private unnamed_addr constant [26 x i8] c"unlink of \22%s\22 failed: %s\00", align 1
@.str.25 = private unnamed_addr constant [43 x i8] c"unlink of \22%s\22 failed, file does not exist\00", align 1
@.str.26 = private unnamed_addr constant [69 x i8] c"phar error: \22%s\22 in phar \22%s\22, has open file pointers, cannot unlink\00", align 1

; Function Attrs: alwaysinline nounwind uwtable
define internal ptr @zend_hash_find_ptr(ptr noundef %0, ptr noundef %1) #5 {
  %3 = alloca ptr, align 8
  %4 = alloca ptr, align 8
  %5 = alloca ptr, align 8
  %6 = alloca ptr, align 8
  %7 = alloca i32, align 4
  store ptr %0, ptr %4, align 8, !tbaa !39
  store ptr %1, ptr %5, align 8, !tbaa !38
  call void @llvm.lifetime.start.p0(i64 8, ptr %6) #14
  %8 = load ptr, ptr %4, align 8, !tbaa !39
  %9 = load ptr, ptr %5, align 8, !tbaa !38
  %10 = call ptr @zend_hash_find(ptr noundef %8, ptr noundef %9)
  store ptr %10, ptr %6, align 8, !tbaa !41
  %11 = load ptr, ptr %6, align 8, !tbaa !41
  %12 = icmp ne ptr %11, null
  br i1 %12, label %13, label %21

13:                                               ; preds = %2
  %14 = load ptr, ptr %6, align 8, !tbaa !41
  %15 = getelementptr inbounds nuw %struct._zval_struct, ptr %14, i32 0, i32 0
  %16 = load ptr, ptr %15, align 8, !tbaa !13
  %17 = icmp ne ptr %16, null
  call void @llvm.assume(i1 %17)
  %18 = load ptr, ptr %6, align 8, !tbaa !41
  %19 = getelementptr inbounds nuw %struct._zval_struct, ptr %18, i32 0, i32 0
  %20 = load ptr, ptr %19, align 8, !tbaa !13
  store ptr %20, ptr %3, align 8
  store i32 1, ptr %7, align 4
  br label %22

21:                                               ; preds = %2
  store ptr null, ptr %3, align 8
  store i32 1, ptr %7, align 4
  br label %22

22:                                               ; preds = %21, %13
  call void @llvm.lifetime.end.p0(i64 8, ptr %6) #14
  %23 = load ptr, ptr %3, align 8
  ret ptr %23
}

; Function Attrs: nounwind uwtable
define internal i32 @phar_wrapper_unlink(ptr noundef %0, ptr noundef %1, i32 noundef %2, ptr noundef %3) #0 {
  %5 = alloca i32, align 4
  %6 = alloca ptr, align 8
  %7 = alloca ptr, align 8
  %8 = alloca i32, align 4
  %9 = alloca ptr, align 8
  %10 = alloca ptr, align 8
  %11 = alloca ptr, align 8
  %12 = alloca ptr, align 8
  %13 = alloca i32, align 4
  %14 = alloca ptr, align 8
  %15 = alloca ptr, align 8
  %16 = alloca i32, align 4
  store ptr %0, ptr %6, align 8, !tbaa !4
  store ptr %1, ptr %7, align 8, !tbaa !9
  store i32 %2, ptr %8, align 4, !tbaa !11
  store ptr %3, ptr %9, align 8, !tbaa !73
  call void @llvm.lifetime.start.p0(i64 8, ptr %10) #14
  call void @llvm.lifetime.start.p0(i64 8, ptr %11) #14
  call void @llvm.lifetime.start.p0(i64 8, ptr %12) #14
  call void @llvm.lifetime.start.p0(i64 4, ptr %13) #14
  call void @llvm.lifetime.start.p0(i64 8, ptr %14) #14
  call void @llvm.lifetime.start.p0(i64 8, ptr %15) #14
  %17 = load ptr, ptr %6, align 8, !tbaa !4
  %18 = load ptr, ptr %7, align 8, !tbaa !9
  %19 = load i32, ptr %8, align 4, !tbaa !11
  %20 = call ptr @phar_parse_url(ptr noundef %17, ptr noundef %18, ptr noundef @.str.22, i32 noundef %19)
  store ptr %20, ptr %10, align 8, !tbaa !14
  %21 = icmp eq ptr %20, null
  br i1 %21, label %22, label %25

22:                                               ; preds = %4
  %23 = load ptr, ptr %6, align 8, !tbaa !4
  %24 = load i32, ptr %8, align 4, !tbaa !11
  call void (ptr, i32, ptr, ...) @php_stream_wrapper_log_error(ptr noundef %23, i32 noundef %24, ptr noundef @.str.23)
  store i32 0, ptr %5, align 4
  store i32 1, ptr %16, align 4
  br label %180

25:                                               ; preds = %4
  %26 = load ptr, ptr %10, align 8, !tbaa !14
  %27 = getelementptr inbounds nuw %struct.php_url, ptr %26, i32 0, i32 0
  %28 = load ptr, ptr %27, align 8, !tbaa !16
  %29 = icmp ne ptr %28, null
  br i1 %29, label %30, label %40

30:                                               ; preds = %25
  %31 = load ptr, ptr %10, align 8, !tbaa !14
  %32 = getelementptr inbounds nuw %struct.php_url, ptr %31, i32 0, i32 3
  %33 = load ptr, ptr %32, align 8, !tbaa !22
  %34 = icmp ne ptr %33, null
  br i1 %34, label %35, label %40

35:                                               ; preds = %30
  %36 = load ptr, ptr %10, align 8, !tbaa !14
  %37 = getelementptr inbounds nuw %struct.php_url, ptr %36, i32 0, i32 5
  %38 = load ptr, ptr %37, align 8, !tbaa !23
  %39 = icmp ne ptr %38, null
  br i1 %39, label %45, label %40

40:                                               ; preds = %35, %30, %25
  %41 = load ptr, ptr %10, align 8, !tbaa !14
  call void @php_url_free(ptr noundef %41)
  %42 = load ptr, ptr %6, align 8, !tbaa !4
  %43 = load i32, ptr %8, align 4, !tbaa !11
  %44 = load ptr, ptr %7, align 8, !tbaa !9
  call void (ptr, i32, ptr, ...) @php_stream_wrapper_log_error(ptr noundef %42, i32 noundef %43, ptr noundef @.str.8, ptr noundef %44)
  store i32 0, ptr %5, align 4
  store i32 1, ptr %16, align 4
  br label %180

45:                                               ; preds = %35
  %46 = load ptr, ptr %10, align 8, !tbaa !14
  %47 = getelementptr inbounds nuw %struct.php_url, ptr %46, i32 0, i32 0
  %48 = load ptr, ptr %47, align 8, !tbaa !16
  %49 = getelementptr inbounds nuw %struct._zend_string, ptr %48, i32 0, i32 2
  %50 = load i64, ptr %49, align 8, !tbaa !35
  %51 = icmp eq i64 %50, 4
  br i1 %51, label %52, label %65

52:                                               ; preds = %45
  %53 = load ptr, ptr %10, align 8, !tbaa !14
  %54 = getelementptr inbounds nuw %struct.php_url, ptr %53, i32 0, i32 0
  %55 = load ptr, ptr %54, align 8, !tbaa !16
  %56 = getelementptr inbounds nuw %struct._zend_string, ptr %55, i32 0, i32 3
  %57 = getelementptr inbounds [1 x i8], ptr %56, i64 0, i64 0
  %58 = load ptr, ptr %10, align 8, !tbaa !14
  %59 = getelementptr inbounds nuw %struct.php_url, ptr %58, i32 0, i32 0
  %60 = load ptr, ptr %59, align 8, !tbaa !16
  %61 = getelementptr inbounds nuw %struct._zend_string, ptr %60, i32 0, i32 2
  %62 = load i64, ptr %61, align 8, !tbaa !35
  %63 = call i32 @zend_binary_strcasecmp(ptr noundef %57, i64 noundef %62, ptr noundef @.str.4, i64 noundef 4)
  %64 = icmp ne i32 %63, 0
  br i1 %64, label %65, label %70

65:                                               ; preds = %52, %45
  %66 = load ptr, ptr %10, align 8, !tbaa !14
  call void @php_url_free(ptr noundef %66)
  %67 = load ptr, ptr %6, align 8, !tbaa !4
  %68 = load i32, ptr %8, align 4, !tbaa !11
  %69 = load ptr, ptr %7, align 8, !tbaa !9
  call void (ptr, i32, ptr, ...) @php_stream_wrapper_log_error(ptr noundef %67, i32 noundef %68, ptr noundef @.str.9, ptr noundef %69)
  store i32 0, ptr %5, align 4
  store i32 1, ptr %16, align 4
  br label %180

70:                                               ; preds = %52
  call void @phar_request_initialize()
  %71 = load ptr, ptr %10, align 8, !tbaa !14
  %72 = getelementptr inbounds nuw %struct.php_url, ptr %71, i32 0, i32 3
  %73 = load ptr, ptr %72, align 8, !tbaa !22
  %74 = call ptr @zend_hash_find_ptr(ptr noundef getelementptr inbounds nuw (%struct._zend_phar_globals, ptr @phar_globals, i32 0, i32 1), ptr noundef %73)
  store ptr %74, ptr %15, align 8, !tbaa !24
  %75 = load i8, ptr getelementptr inbounds nuw (%struct._zend_phar_globals, ptr @phar_globals, i32 0, i32 6), align 8, !tbaa !34, !range !32, !noundef !33
  %76 = trunc i8 %75 to i1
  br i1 %76, label %77, label %92

77:                                               ; preds = %70
  %78 = load ptr, ptr %15, align 8, !tbaa !24
  %79 = icmp ne ptr %78, null
  br i1 %79, label %80, label %88

80:                                               ; preds = %77
  %81 = load ptr, ptr %15, align 8, !tbaa !24
  %82 = getelementptr inbounds nuw %struct._phar_archive_data, ptr %81, i32 0, i32 22
  %83 = load i16, ptr %82, align 4
  %84 = lshr i16 %83, 7
  %85 = and i16 %84, 1
  %86 = zext i16 %85 to i32
  %87 = icmp ne i32 %86, 0
  br i1 %87, label %92, label %88

88:                                               ; preds = %80, %77
  %89 = load ptr, ptr %10, align 8, !tbaa !14
  call void @php_url_free(ptr noundef %89)
  %90 = load ptr, ptr %6, align 8, !tbaa !4
  %91 = load i32, ptr %8, align 4, !tbaa !11
  call void (ptr, i32, ptr, ...) @php_stream_wrapper_log_error(ptr noundef %90, i32 noundef %91, ptr noundef @.str.5)
  store i32 0, ptr %5, align 4
  store i32 1, ptr %16, align 4
  br label %180

92:                                               ; preds = %80, %70
  %93 = load ptr, ptr %10, align 8, !tbaa !14
  %94 = getelementptr inbounds nuw %struct.php_url, ptr %93, i32 0, i32 5
  %95 = load ptr, ptr %94, align 8, !tbaa !23
  %96 = getelementptr inbounds nuw %struct._zend_string, ptr %95, i32 0, i32 3
  %97 = getelementptr inbounds [1 x i8], ptr %96, i64 0, i64 0
  %98 = getelementptr inbounds i8, ptr %97, i64 1
  %99 = load ptr, ptr %10, align 8, !tbaa !14
  %100 = getelementptr inbounds nuw %struct.php_url, ptr %99, i32 0, i32 5
  %101 = load ptr, ptr %100, align 8, !tbaa !23
  %102 = getelementptr inbounds nuw %struct._zend_string, ptr %101, i32 0, i32 2
  %103 = load i64, ptr %102, align 8, !tbaa !35
  %104 = sub i64 %103, 1
  %105 = call noalias ptr @_estrndup(ptr noundef %98, i64 noundef %104)
  store ptr %105, ptr %11, align 8, !tbaa !9
  %106 = load ptr, ptr %10, align 8, !tbaa !14
  %107 = getelementptr inbounds nuw %struct.php_url, ptr %106, i32 0, i32 5
  %108 = load ptr, ptr %107, align 8, !tbaa !23
  %109 = getelementptr inbounds nuw %struct._zend_string, ptr %108, i32 0, i32 2
  %110 = load i64, ptr %109, align 8, !tbaa !35
  %111 = sub i64 %110, 1
  %112 = trunc i64 %111 to i32
  store i32 %112, ptr %13, align 4, !tbaa !11
  %113 = load ptr, ptr %10, align 8, !tbaa !14
  %114 = getelementptr inbounds nuw %struct.php_url, ptr %113, i32 0, i32 3
  %115 = load ptr, ptr %114, align 8, !tbaa !22
  %116 = getelementptr inbounds nuw %struct._zend_string, ptr %115, i32 0, i32 3
  %117 = getelementptr inbounds [1 x i8], ptr %116, i64 0, i64 0
  %118 = load ptr, ptr %10, align 8, !tbaa !14
  %119 = getelementptr inbounds nuw %struct.php_url, ptr %118, i32 0, i32 3
  %120 = load ptr, ptr %119, align 8, !tbaa !22
  %121 = getelementptr inbounds nuw %struct._zend_string, ptr %120, i32 0, i32 2
  %122 = load i64, ptr %121, align 8, !tbaa !35
  %123 = load ptr, ptr %11, align 8, !tbaa !9
  %124 = load i32, ptr %13, align 4, !tbaa !11
  %125 = sext i32 %124 to i64
  %126 = call i32 @phar_get_entry_data(ptr noundef %14, ptr noundef %117, i64 noundef %122, ptr noundef %123, i64 noundef %125, ptr noundef @.str.16, i8 noundef signext 0, ptr noundef %12, i32 noundef 1)
  %127 = icmp eq i32 -1, %126
  br i1 %127, label %128, label %144

128:                                              ; preds = %92
  %129 = load ptr, ptr %12, align 8, !tbaa !9
  %130 = icmp ne ptr %129, null
  br i1 %130, label %131, label %137

131:                                              ; preds = %128
  %132 = load ptr, ptr %6, align 8, !tbaa !4
  %133 = load i32, ptr %8, align 4, !tbaa !11
  %134 = load ptr, ptr %7, align 8, !tbaa !9
  %135 = load ptr, ptr %12, align 8, !tbaa !9
  call void (ptr, i32, ptr, ...) @php_stream_wrapper_log_error(ptr noundef %132, i32 noundef %133, ptr noundef @.str.24, ptr noundef %134, ptr noundef %135)
  %136 = load ptr, ptr %12, align 8, !tbaa !9
  call void @_efree(ptr noundef %136)
  br label %141

137:                                              ; preds = %128
  %138 = load ptr, ptr %6, align 8, !tbaa !4
  %139 = load i32, ptr %8, align 4, !tbaa !11
  %140 = load ptr, ptr %7, align 8, !tbaa !9
  call void (ptr, i32, ptr, ...) @php_stream_wrapper_log_error(ptr noundef %138, i32 noundef %139, ptr noundef @.str.25, ptr noundef %140)
  br label %141

141:                                              ; preds = %137, %131
  %142 = load ptr, ptr %11, align 8, !tbaa !9
  call void @_efree(ptr noundef %142)
  %143 = load ptr, ptr %10, align 8, !tbaa !14
  call void @php_url_free(ptr noundef %143)
  store i32 0, ptr %5, align 4
  store i32 1, ptr %16, align 4
  br label %180

144:                                              ; preds = %92
  %145 = load ptr, ptr %12, align 8, !tbaa !9
  %146 = icmp ne ptr %145, null
  br i1 %146, label %147, label %149

147:                                              ; preds = %144
  %148 = load ptr, ptr %12, align 8, !tbaa !9
  call void @_efree(ptr noundef %148)
  br label %149

149:                                              ; preds = %147, %144
  %150 = load ptr, ptr %14, align 8, !tbaa !75
  %151 = getelementptr inbounds nuw %struct._phar_entry_data, ptr %150, i32 0, i32 4
  %152 = load ptr, ptr %151, align 8, !tbaa !84
  %153 = getelementptr inbounds nuw %struct._phar_entry_info, ptr %152, i32 0, i32 14
  %154 = load i32, ptr %153, align 8, !tbaa !98
  %155 = icmp sgt i32 %154, 1
  br i1 %155, label %156, label %168

156:                                              ; preds = %149
  %157 = load ptr, ptr %6, align 8, !tbaa !4
  %158 = load i32, ptr %8, align 4, !tbaa !11
  %159 = load ptr, ptr %11, align 8, !tbaa !9
  %160 = load ptr, ptr %10, align 8, !tbaa !14
  %161 = getelementptr inbounds nuw %struct.php_url, ptr %160, i32 0, i32 3
  %162 = load ptr, ptr %161, align 8, !tbaa !22
  %163 = getelementptr inbounds nuw %struct._zend_string, ptr %162, i32 0, i32 3
  %164 = getelementptr inbounds [1 x i8], ptr %163, i64 0, i64 0
  call void (ptr, i32, ptr, ...) @php_stream_wrapper_log_error(ptr noundef %157, i32 noundef %158, ptr noundef @.str.26, ptr noundef %159, ptr noundef %164)
  %165 = load ptr, ptr %11, align 8, !tbaa !9
  call void @_efree(ptr noundef %165)
  %166 = load ptr, ptr %10, align 8, !tbaa !14
  call void @php_url_free(ptr noundef %166)
  %167 = load ptr, ptr %14, align 8, !tbaa !75
  call void @phar_entry_delref(ptr noundef %167)
  store i32 0, ptr %5, align 4
  store i32 1, ptr %16, align 4
  br label %180

168:                                              ; preds = %149
  %169 = load ptr, ptr %10, align 8, !tbaa !14
  call void @php_url_free(ptr noundef %169)
  %170 = load ptr, ptr %11, align 8, !tbaa !9
  call void @_efree(ptr noundef %170)
  %171 = load ptr, ptr %14, align 8, !tbaa !75
  call void @phar_entry_remove(ptr noundef %171, ptr noundef %12)
  %172 = load ptr, ptr %12, align 8, !tbaa !9
  %173 = icmp ne ptr %172, null
  br i1 %173, label %174, label %179

174:                                              ; preds = %168
  %175 = load ptr, ptr %6, align 8, !tbaa !4
  %176 = load i32, ptr %8, align 4, !tbaa !11
  %177 = load ptr, ptr %12, align 8, !tbaa !9
  call void (ptr, i32, ptr, ...) @php_stream_wrapper_log_error(ptr noundef %175, i32 noundef %176, ptr noundef @.str.6, ptr noundef %177)
  %178 = load ptr, ptr %12, align 8, !tbaa !9
  call void @_efree(ptr noundef %178)
  br label %179

179:                                              ; preds = %174, %168
  store i32 1, ptr %5, align 4
  store i32 1, ptr %16, align 4
  br label %180

180:                                              ; preds = %179, %156, %141, %88, %65, %40, %22
  call void @llvm.lifetime.end.p0(i64 8, ptr %15) #14
  call void @llvm.lifetime.end.p0(i64 8, ptr %14) #14
  call void @llvm.lifetime.end.p0(i64 4, ptr %13) #14
  call void @llvm.lifetime.end.p0(i64 8, ptr %12) #14
  call void @llvm.lifetime.end.p0(i64 8, ptr %11) #14
  call void @llvm.lifetime.end.p0(i64 8, ptr %10) #14
  %181 = load i32, ptr %5, align 4
  ret i32 %181
}