; Function Attrs: nounwind uwtable
define internal range(i32 0, 2) i32 @phar_wrapper_unlink(ptr noundef %0, ptr noundef %1, i32 noundef %2, ptr readnone captures(none) %3) #0 {
  %5 = alloca ptr, align 8
  %6 = alloca ptr, align 8
  call void @llvm.lifetime.start.p0(i64 8, ptr nonnull %5) #15
  call void @llvm.lifetime.start.p0(i64 8, ptr nonnull %6) #15
  %7 = tail call ptr @phar_parse_url(ptr noundef %0, ptr noundef %1, ptr noundef nonnull @.str.22, i32 noundef %2)
  %8 = icmp eq ptr %7, null
  br i1 %8, label %9, label %10

9:                                                ; preds = %4
  tail call void (ptr, i32, ptr, ...) @php_stream_wrapper_log_error(ptr noundef %0, i32 noundef %2, ptr noundef nonnull @.str.23) #15
  br label %79

10:                                               ; preds = %4
  %11 = load ptr, ptr %7, align 8, !tbaa !17
  %.not = icmp eq ptr %11, null
  br i1 %.not, label %18, label %12

12:                                               ; preds = %10
  %13 = getelementptr inbounds nuw i8, ptr %7, i64 24
  %14 = load ptr, ptr %13, align 8, !tbaa !22
  %.not57 = icmp eq ptr %14, null
  br i1 %.not57, label %18, label %15

15:                                               ; preds = %12
  %16 = getelementptr inbounds nuw i8, ptr %7, i64 40
  %17 = load ptr, ptr %16, align 8, !tbaa !23
  %.not58 = icmp eq ptr %17, null
  br i1 %.not58, label %18, label %19

18:                                               ; preds = %15, %12, %10
  tail call void @php_url_free(ptr noundef nonnull %7) #15
  tail call void (ptr, i32, ptr, ...) @php_stream_wrapper_log_error(ptr noundef %0, i32 noundef %2, ptr noundef nonnull @.str.8, ptr noundef %1) #15
  br label %79

19:                                               ; preds = %15
  %20 = getelementptr inbounds nuw i8, ptr %11, i64 16
  %21 = load i64, ptr %20, align 8, !tbaa !16
  %22 = icmp eq i64 %21, 4
  br i1 %22, label %23, label %26

23:                                               ; preds = %19
  %24 = getelementptr inbounds nuw i8, ptr %11, i64 24
  %25 = tail call i32 @zend_binary_strcasecmp(ptr noundef nonnull %24, i64 noundef 4, ptr noundef nonnull @.str.4, i64 noundef 4) #15
  %.not59 = icmp eq i32 %25, 0
  br i1 %.not59, label %27, label %26

26:                                               ; preds = %23, %19
  tail call void @php_url_free(ptr noundef nonnull %7) #15
  tail call void (ptr, i32, ptr, ...) @php_stream_wrapper_log_error(ptr noundef %0, i32 noundef %2, ptr noundef nonnull @.str.9, ptr noundef %1) #15
  br label %79

27:                                               ; preds = %23
  tail call void @phar_request_initialize() #15
  %28 = load ptr, ptr %13, align 8, !tbaa !22
  %29 = tail call ptr @zend_hash_find(ptr noundef nonnull getelementptr inbounds nuw (i8, ptr @phar_globals, i64 56), ptr noundef %28) #15
  %.not.i = icmp eq ptr %29, null
  %30 = load i8, ptr getelementptr inbounds nuw (i8, ptr @phar_globals, i64 192), align 8, !tbaa !32, !range !30, !noundef !31
  %31 = trunc nuw i8 %30 to i1
  br i1 %.not.i, label %zend_hash_find_ptr.exit.thread, label %zend_hash_find_ptr.exit

zend_hash_find_ptr.exit:                          ; preds = %27
  br i1 %31, label %32, label %37

zend_hash_find_ptr.exit.thread:                   ; preds = %27
  br i1 %31, label %.thread, label %37

32:                                               ; preds = %zend_hash_find_ptr.exit
  %33 = load ptr, ptr %29, align 8, !tbaa !9, !nonnull !31, !noundef !31
  %34 = getelementptr inbounds nuw i8, ptr %33, i64 316
  %35 = load i16, ptr %34, align 4
  %36 = and i16 %35, 128
  %.not61 = icmp eq i16 %36, 0
  br i1 %.not61, label %.thread, label %37

.thread:                                          ; preds = %zend_hash_find_ptr.exit.thread, %32
  tail call void @php_url_free(ptr noundef nonnull %7) #15
  tail call void (ptr, i32, ptr, ...) @php_stream_wrapper_log_error(ptr noundef %0, i32 noundef %2, ptr noundef nonnull @.str.5) #15
  br label %79

37:                                               ; preds = %zend_hash_find_ptr.exit.thread, %32, %zend_hash_find_ptr.exit
  %38 = load ptr, ptr %16, align 8, !tbaa !23
  %39 = getelementptr inbounds nuw i8, ptr %38, i64 25
  %40 = getelementptr inbounds nuw i8, ptr %38, i64 16
  %41 = load i64, ptr %40, align 8, !tbaa !16
  %42 = add i64 %41, -1
  %43 = tail call noalias ptr @_estrndup(ptr noundef nonnull %39, i64 noundef %42) #15
  %44 = load ptr, ptr %16, align 8, !tbaa !23
  %45 = getelementptr inbounds nuw i8, ptr %44, i64 16
  %46 = load i64, ptr %45, align 8, !tbaa !16
  %47 = load ptr, ptr %13, align 8, !tbaa !22
  %48 = getelementptr inbounds nuw i8, ptr %47, i64 24
  %49 = getelementptr inbounds nuw i8, ptr %47, i64 16
  %50 = load i64, ptr %49, align 8, !tbaa !16
  %51 = shl i64 %46, 32
  %sext = add i64 %51, -4294967296
  %52 = ashr exact i64 %sext, 32
  %53 = call i32 @phar_get_entry_data(ptr noundef nonnull %6, ptr noundef nonnull %48, i64 noundef %50, ptr noundef %43, i64 noundef %52, ptr noundef nonnull @.str.16, i8 noundef signext 0, ptr noundef nonnull %5, i32 noundef 1) #15
  %54 = icmp eq i32 %53, -1
  %55 = load ptr, ptr %5, align 8, !tbaa !4
  %.not64 = icmp eq ptr %55, null
  br i1 %54, label %56, label %61

56:                                               ; preds = %37
  br i1 %.not64, label %59, label %57

57:                                               ; preds = %56
  call void (ptr, i32, ptr, ...) @php_stream_wrapper_log_error(ptr noundef %0, i32 noundef %2, ptr noundef nonnull @.str.24, ptr noundef %1, ptr noundef nonnull %55) #15
  %58 = load ptr, ptr %5, align 8, !tbaa !4
  call void @_efree(ptr noundef %58) #15
  br label %60

59:                                               ; preds = %56
  call void (ptr, i32, ptr, ...) @php_stream_wrapper_log_error(ptr noundef %0, i32 noundef %2, ptr noundef nonnull @.str.25, ptr noundef %1) #15
  br label %60

60:                                               ; preds = %59, %57
  call void @_efree(ptr noundef %43) #15
  call void @php_url_free(ptr noundef nonnull %7) #15
  br label %79

61:                                               ; preds = %37
  br i1 %.not64, label %63, label %62

62:                                               ; preds = %61
  call void @_efree(ptr noundef nonnull %55) #15
  br label %63

63:                                               ; preds = %62, %61
  %64 = load ptr, ptr %6, align 8, !tbaa !54
  %65 = getelementptr inbounds nuw i8, ptr %64, i64 32
  %66 = load ptr, ptr %65, align 8, !tbaa !63
  %67 = getelementptr inbounds nuw i8, ptr %66, i64 104
  %68 = load i32, ptr %67, align 8, !tbaa !80
  %69 = icmp sgt i32 %68, 1
  br i1 %69, label %70, label %74

70:                                               ; preds = %63
  %71 = load ptr, ptr %13, align 8, !tbaa !22
  %72 = getelementptr inbounds nuw i8, ptr %71, i64 24
  call void (ptr, i32, ptr, ...) @php_stream_wrapper_log_error(ptr noundef %0, i32 noundef %2, ptr noundef nonnull @.str.26, ptr noundef %43, ptr noundef nonnull %72) #15
  call void @_efree(ptr noundef %43) #15
  call void @php_url_free(ptr noundef nonnull %7) #15
  %73 = load ptr, ptr %6, align 8, !tbaa !54
  call void @phar_entry_delref(ptr noundef %73) #15
  br label %79

74:                                               ; preds = %63
  call void @php_url_free(ptr noundef nonnull %7) #15
  call void @_efree(ptr noundef %43) #15
  %75 = load ptr, ptr %6, align 8, !tbaa !54
  call void @phar_entry_remove(ptr noundef %75, ptr noundef nonnull %5) #15
  %76 = load ptr, ptr %5, align 8, !tbaa !4
  %.not63 = icmp eq ptr %76, null
  br i1 %.not63, label %79, label %77

77:                                               ; preds = %74
  call void (ptr, i32, ptr, ...) @php_stream_wrapper_log_error(ptr noundef %0, i32 noundef %2, ptr noundef nonnull @.str.6, ptr noundef nonnull %76) #15
  %78 = load ptr, ptr %5, align 8, !tbaa !4
  call void @_efree(ptr noundef %78) #15
  br label %79

79:                                               ; preds = %74, %77, %70, %60, %.thread, %26, %18, %9
  %.0 = phi i32 [ 0, %9 ], [ 0, %26 ], [ 0, %60 ], [ 0, %70 ], [ 0, %.thread ], [ 0, %18 ], [ 1, %77 ], [ 1, %74 ]
  call void @llvm.lifetime.end.p0(i64 8, ptr nonnull %6) #15
  call void @llvm.lifetime.end.p0(i64 8, ptr nonnull %5) #15
  ret i32 %.0
}